target datalayout = "e-m:e-p270:32:32-p271:32:32-p272:64:64-i64:64-i128:128-f80:128-n8:16:32:64-S128"
target triple = "x86_64-pc-linux-gnu"

%struct._psqlSettings = type { ptr, i32, ptr, i8, ptr, ptr, %struct.printQueryOpt, ptr, ptr, ptr, i8, i8, i32, i32, ptr, ptr, i8, [4 x ptr], i8, i32, ptr, i8, i32, ptr, ptr, i64, i64, i8, ptr, ptr, ptr, i8, i8, i8, i8, i8, i8, i8, i32, i32, i32, i32, i32, i32, i32, i32, ptr, ptr, ptr, i32, i8, i32 }
%struct.printQueryOpt = type { %struct.printTableOpt, ptr, ptr, ptr, i8, ptr, i32 }
%struct.printTableOpt = type { i32, i16, i32, i32, i16, i16, i32, i8, i8, i8, i8, i64, ptr, %struct.separator, %struct.separator, [2 x i8], i8, ptr, i32, i32, i32, i32, i32, i32 }
%struct.separator = type { ptr, i8 }
%struct.PQExpBufferData = type { ptr, i64, i64 }

@pset = external global %struct._psqlSettings, align 8
@.str.1 = private unnamed_addr constant [7 x i8] c"Schema\00", align 1
@.str.2 = private unnamed_addr constant [5 x i8] c"Name\00", align 1
@.str.8 = private unnamed_addr constant [81 x i8] c"      AND n.nspname <> 'pg_catalog'\0A      AND n.nspname <> 'information_schema'\0A\00", align 1
@.str.9 = private unnamed_addr constant [10 x i8] c"n.nspname\00", align 1
@.str.18 = private unnamed_addr constant [5 x i8] c"Type\00", align 1
@.str.111 = private unnamed_addr constant [15 x i8] c"ORDER BY 1, 2;\00", align 1
@permissionsList.translate_columns = internal constant [6 x i8] c"\00\00\01\00\00\00", align 1
@.str.151 = private unnamed_addr constant [194 x i8] c"SELECT n.nspname as \22%s\22,\0A  c.relname as \22%s\22,\0A  CASE c.relkind WHEN 'r' THEN '%s' WHEN 'v' THEN '%s' WHEN 'm' THEN '%s' WHEN 'S' THEN '%s' WHEN 'f' THEN '%s' WHEN 'p' THEN '%s' END as \22%s\22,\0A  \00", align 1
@.str.152 = private unnamed_addr constant [6 x i8] c"table\00", align 1
@.str.153 = private unnamed_addr constant [5 x i8] c"view\00", align 1
@.str.154 = private unnamed_addr constant [18 x i8] c"materialized view\00", align 1
@.str.155 = private unnamed_addr constant [9 x i8] c"sequence\00", align 1
@.str.156 = private unnamed_addr constant [14 x i8] c"foreign table\00", align 1
@.str.157 = private unnamed_addr constant [18 x i8] c"partitioned table\00", align 1
@.str.158 = private unnamed_addr constant [9 x i8] c"c.relacl\00", align 1
@.str.160 = private unnamed_addr constant [18 x i8] c"Column privileges\00", align 1
@.str.162 = private unnamed_addr constant [9 x i8] c"Policies\00", align 1
@.str.164 = private unnamed_addr constant [141 x i8] c"\0AFROM pg_catalog.pg_class c\0A     LEFT JOIN pg_catalog.pg_namespace n ON n.oid = c.relnamespace\0AWHERE c.relkind IN ('r','v','m','S','f','p')\0A\00", align 1
@.str.165 = private unnamed_addr constant [10 x i8] c"c.relname\00", align 1
@.str.166 = private unnamed_addr constant [38 x i8] c"pg_catalog.pg_table_is_visible(c.oid)\00", align 1
@.str.167 = private unnamed_addr constant [18 x i8] c"Access privileges\00", align 1
@.str.916 = private unnamed_addr constant [110 x i8] c"CASE WHEN pg_catalog.array_length(%s, 1) = 0 THEN '%s' ELSE pg_catalog.array_to_string(%s, E'\\n') END AS \22%s\22\00", align 1
@.str.917 = private unnamed_addr constant [7 x i8] c"(none)\00", align 1

; Function Attrs: nounwind uwtable
define internal void @printACLColumn(ptr noundef %0, ptr noundef %1) #0 {
  %3 = alloca ptr, align 8
  %4 = alloca ptr, align 8
  store ptr %0, ptr %3, align 8
  store ptr %1, ptr %4, align 8
  %5 = load ptr, ptr %3, align 8
  %6 = load ptr, ptr %4, align 8
  %7 = load ptr, ptr %4, align 8
  call void (ptr, ptr, ...) @appendPQExpBuffer(ptr noundef %5, ptr noundef @.str.916, ptr noundef %6, ptr noundef @.str.917, ptr noundef %7, ptr noundef @.str.167)
  ret void
}

; Function Attrs: nounwind uwtable
define dso_local zeroext i1 @permissionsList(ptr noundef %0, i1 noundef zeroext %1) #0 {
  %3 = alloca i1, align 1
  %4 = alloca ptr, align 8
  %5 = alloca i8, align 1
  %6 = alloca %struct.PQExpBufferData, align 8
  %7 = alloca ptr, align 8
  %8 = alloca %struct.printQueryOpt, align 8
  %9 = alloca i32, align 4
  store ptr %0, ptr %4, align 8
  %10 = zext i1 %1 to i8
  store i8 %10, ptr %5, align 1
  call void @llvm.lifetime.start.p0(i64 24, ptr %6) #8
  call void @llvm.lifetime.start.p0(i64 8, ptr %7) #8
  call void @llvm.lifetime.start.p0(i64 168, ptr %8) #8
  call void @llvm.memcpy.p0.p0.i64(ptr align 8 %8, ptr align 8 getelementptr inbounds nuw (%struct._psqlSettings, ptr @pset, i32 0, i32 6), i64 168, i1 false)
  call void @initPQExpBuffer(ptr noundef %6)
  call void (ptr, ptr, ...) @printfPQExpBuffer(ptr noundef %6, ptr noundef @.str.151, ptr noundef @.str.1, ptr noundef @.str.2, ptr noundef @.str.152, ptr noundef @.str.153, ptr noundef @.str.154, ptr noundef @.str.155, ptr noundef @.str.156, ptr noundef @.str.157, ptr noundef @.str.18)
  call void @printACLColumn(ptr noundef %6, ptr noundef @.str.158)
  call void (ptr, ptr, ...) @appendPQExpBuffer(ptr noundef %6, ptr noundef @.str.159, ptr noundef @.str.160)
  %11 = load i32, ptr getelementptr inbounds nuw (%struct._psqlSettings, ptr @pset, i32 0, i32 22), align 4
  %12 = icmp sge i32 %11, 90500
  br i1 %12, label %13, label %17

13:                                               ; preds = %2
  %14 = load i32, ptr getelementptr inbounds nuw (%struct._psqlSettings, ptr @pset, i32 0, i32 22), align 4
  %15 = icmp slt i32 %14, 100000
  br i1 %15, label %16, label %17

16:                                               ; preds = %13
  call void (ptr, ptr, ...) @appendPQExpBuffer(ptr noundef %6, ptr noundef @.str.161, ptr noundef @.str.162)
  br label %17

17:                                               ; preds = %16, %13, %2
  %18 = load i32, ptr getelementptr inbounds nuw (%struct._psqlSettings, ptr @pset, i32 0, i32 22), align 4
  %19 = icmp sge i32 %18, 100000
  br i1 %19, label %20, label %21

20:                                               ; preds = %17
  call void (ptr, ptr, ...) @appendPQExpBuffer(ptr noundef %6, ptr noundef @.str.163, ptr noundef @.str.162)
  br label %21

21:                                               ; preds = %20, %17
  call void @appendPQExpBufferStr(ptr noundef %6, ptr noundef @.str.164)
  %22 = load i8, ptr %5, align 1, !range !4, !noundef !5
  %23 = trunc i8 %22 to i1
  br i1 %23, label %28, label %24

24:                                               ; preds = %21
  %25 = load ptr, ptr %4, align 8
  %26 = icmp ne ptr %25, null
  br i1 %26, label %28, label %27

27:                                               ; preds = %24
  call void @appendPQExpBufferStr(ptr noundef %6, ptr noundef @.str.8)
  br label %28

28:                                               ; preds = %27, %24, %21
  %29 = load ptr, ptr %4, align 8
  %30 = call zeroext i1 @validateSQLNamePattern(ptr noundef %6, ptr noundef %29, i1 noundef zeroext true, i1 noundef zeroext false, ptr noundef @.str.9, ptr noundef @.str.165, ptr noundef null, ptr noundef @.str.166, ptr noundef null, i32 noundef 3)
  br i1 %30, label %32, label %31

31:                                               ; preds = %28
  br label %50

32:                                               ; preds = %28
  call void @appendPQExpBufferStr(ptr noundef %6, ptr noundef @.str.111)
  %33 = getelementptr inbounds nuw %struct.PQExpBufferData, ptr %6, i32 0, i32 0
  %34 = load ptr, ptr %33, align 8
  %35 = call ptr @PSQLexec(ptr noundef %34)
  store ptr %35, ptr %7, align 8
  %36 = load ptr, ptr %7, align 8
  %37 = icmp ne ptr %36, null
  br i1 %37, label %39, label %38

38:                                               ; preds = %32
  br label %50

39:                                               ; preds = %32
  call void (ptr, ptr, ...) @printfPQExpBuffer(ptr noundef %6, ptr noundef @.str.167)
  %40 = getelementptr inbounds nuw %struct.PQExpBufferData, ptr %6, i32 0, i32 0
  %41 = load ptr, ptr %40, align 8
  %42 = getelementptr inbounds nuw %struct.printQueryOpt, ptr %8, i32 0, i32 2
  store ptr %41, ptr %42, align 8
  %43 = getelementptr inbounds nuw %struct.printQueryOpt, ptr %8, i32 0, i32 4
  store i8 1, ptr %43, align 8
  %44 = getelementptr inbounds nuw %struct.printQueryOpt, ptr %8, i32 0, i32 5
  store ptr @permissionsList.translate_columns, ptr %44, align 8
  %45 = getelementptr inbounds nuw %struct.printQueryOpt, ptr %8, i32 0, i32 6
  store i32 6, ptr %45, align 8
  %46 = load ptr, ptr %7, align 8
  %47 = load ptr, ptr getelementptr inbounds nuw (%struct._psqlSettings, ptr @pset, i32 0, i32 2), align 8
  %48 = load ptr, ptr getelementptr inbounds nuw (%struct._psqlSettings, ptr @pset, i32 0, i32 28), align 8
  call void @printQuery(ptr noundef %46, ptr noundef %8, ptr noundef %47, i1 noundef zeroext false, ptr noundef %48)
  call void @termPQExpBuffer(ptr noundef %6)
  %49 = load ptr, ptr %7, align 8
  call void @PQclear(ptr noundef %49)
  store i1 true, ptr %3, align 1
  store i32 1, ptr %9, align 4
  br label %51

50:                                               ; preds = %38, %31
  call void @termPQExpBuffer(ptr noundef %6)
  store i1 false, ptr %3, align 1
  store i32 1, ptr %9, align 4
  br label %51

51:                                               ; preds = %50, %39
  call void @llvm.lifetime.end.p0(i64 168, ptr %8) #8
  call void @llvm.lifetime.end.p0(i64 8, ptr %7) #8
  call void @llvm.lifetime.end.p0(i64 24, ptr %6) #8
  %52 = load i1, ptr %3, align 1
  ret i1 %52
}