; Function Attrs: nounwind uwtable
define dso_local noundef zeroext i1 @permissionsList(ptr noundef %0, i1 noundef zeroext %1) local_unnamed_addr #0 {
  %3 = alloca %struct.PQExpBufferData, align 8
  %4 = alloca %struct.printQueryOpt, align 8
  call void @llvm.lifetime.start.p0(i64 24, ptr nonnull %3) #8
  call void @llvm.lifetime.start.p0(i64 168, ptr nonnull %4) #8
  call void @llvm.memcpy.p0.p0.i64(ptr noundef nonnull align 8 dereferenceable(168) %4, ptr noundef nonnull align 8 dereferenceable(168) getelementptr inbounds nuw (i8, ptr @pset, i64 48), i64 168, i1 false)
  call void @initPQExpBuffer(ptr noundef nonnull %3) #8
  call void (ptr, ptr, ...) @printfPQExpBuffer(ptr noundef nonnull %3, ptr noundef nonnull @.str.151, ptr noundef nonnull @.str.1, ptr noundef nonnull @.str.2, ptr noundef nonnull @.str.152, ptr noundef nonnull @.str.153, ptr noundef nonnull @.str.154, ptr noundef nonnull @.str.155, ptr noundef nonnull @.str.156, ptr noundef nonnull @.str.157, ptr noundef nonnull @.str.18) #8
  call void (ptr, ptr, ...) @appendPQExpBuffer(ptr noundef nonnull %3, ptr noundef nonnull @.str.916, ptr noundef nonnull @.str.158, ptr noundef nonnull @.str.917, ptr noundef nonnull @.str.158, ptr noundef nonnull @.str.167) #8
  call void (ptr, ptr, ...) @appendPQExpBuffer(ptr noundef nonnull %3, ptr noundef nonnull @.str.159, ptr noundef nonnull @.str.160) #8
  %5 = load i32, ptr getelementptr inbounds nuw (i8, ptr @pset, i64 332), align 4
  %6 = add i32 %5, -90500
  %or.cond = icmp ult i32 %6, 9500
  br i1 %or.cond, label %7, label %8

7:                                                ; preds = %2
  call void (ptr, ptr, ...) @appendPQExpBuffer(ptr noundef nonnull %3, ptr noundef nonnull @.str.161, ptr noundef nonnull @.str.162) #8
  %.pr = load i32, ptr getelementptr inbounds nuw (i8, ptr @pset, i64 332), align 4
  br label %8

8:                                                ; preds = %7, %2
  %9 = phi i32 [ %.pr, %7 ], [ %5, %2 ]
  %10 = icmp sgt i32 %9, 99999
  br i1 %10, label %11, label %12

11:                                               ; preds = %8
  call void (ptr, ptr, ...) @appendPQExpBuffer(ptr noundef nonnull %3, ptr noundef nonnull @.str.163, ptr noundef nonnull @.str.162) #8
  br label %12

12:                                               ; preds = %11, %8
  call void @appendPQExpBufferStr(ptr noundef nonnull %3, ptr noundef nonnull @.str.164) #8
  %13 = icmp ne ptr %0, null
  %or.cond3 = or i1 %1, %13
  br i1 %or.cond3, label %15, label %14

14:                                               ; preds = %12
  call void @appendPQExpBufferStr(ptr noundef nonnull %3, ptr noundef nonnull @.str.8) #8
  br label %15

15:                                               ; preds = %14, %12
  %16 = call fastcc zeroext i1 @validateSQLNamePattern(ptr noundef %3, ptr noundef %0, i1 noundef zeroext true, i1 noundef zeroext false, ptr noundef nonnull @.str.9, ptr noundef nonnull @.str.165, ptr noundef null, ptr noundef nonnull @.str.166, ptr noundef null, i32 noundef 3)
  br i1 %16, label %17, label %28

17:                                               ; preds = %15
  call void @appendPQExpBufferStr(ptr noundef nonnull %3, ptr noundef nonnull @.str.111) #8
  %18 = load ptr, ptr %3, align 8
  %19 = call ptr @PSQLexec(ptr noundef %18) #8
  %.not = icmp eq ptr %19, null
  br i1 %.not, label %28, label %20

20:                                               ; preds = %17
  call void (ptr, ptr, ...) @printfPQExpBuffer(ptr noundef nonnull %3, ptr noundef nonnull @.str.167) #8
  %21 = load ptr, ptr %3, align 8
  %22 = getelementptr inbounds nuw i8, ptr %4, i64 128
  store ptr %21, ptr %22, align 8
  %23 = getelementptr inbounds nuw i8, ptr %4, i64 144
  store i8 1, ptr %23, align 8
  %24 = getelementptr inbounds nuw i8, ptr %4, i64 152
  store ptr @permissionsList.translate_columns, ptr %24, align 8
  %25 = getelementptr inbounds nuw i8, ptr %4, i64 160
  store i32 6, ptr %25, align 8
  %26 = load ptr, ptr getelementptr inbounds nuw (i8, ptr @pset, i64 16), align 8
  %27 = load ptr, ptr getelementptr inbounds nuw (i8, ptr @pset, i64 376), align 8
  call void @printQuery(ptr noundef nonnull %19, ptr noundef nonnull %4, ptr noundef %26, i1 noundef zeroext false, ptr noundef %27) #8
  call void @termPQExpBuffer(ptr noundef nonnull %3) #8
  call void @PQclear(ptr noundef nonnull %19) #8
  br label %29

28:                                               ; preds = %17, %15
  call void @termPQExpBuffer(ptr noundef nonnull %3) #8
  br label %29

29:                                               ; preds = %28, %20
  %.0 = phi i1 [ true, %20 ], [ false, %28 ]
  call void @llvm.lifetime.end.p0(i64 168, ptr nonnull %4) #8
  call void @llvm.lifetime.end.p0(i64 24, ptr nonnull %3) #8
  ret i1 %.0
}